; Function Attrs: mustprogress uwtable
define hidden noundef ptr @_ZNK11z3_replayer16get_symbol_arrayEj(ptr noundef nonnull readonly align 8 captures(none) dereferenceable(8) %0, i32 noundef %1) local_unnamed_addr #5 align 2 {
  %3 = load ptr, ptr %0, align 8, !tbaa !17
  tail call void @_ZNK11z3_replayer3imp9check_argEjNS0_10value_kindE(ptr noundef nonnull align 8 dereferenceable(184) %3, i32 noundef %1, i32 noundef 8)
  %4 = getelementptr inbounds nuw i8, ptr %3, i64 136
  %5 = load ptr, ptr %4, align 8, !tbaa !69
  %6 = zext i32 %1 to i64
  %7 = getelementptr inbounds nuw %"struct.z3_replayer::imp::value", ptr %5, i64 %6, i32 1
  %8 = load i64, ptr %7, align 8, !tbaa !3
  %9 = getelementptr inbounds nuw i8, ptr %3, i64 160
  %10 = load ptr, ptr %9, align 8, !tbaa !81
  %11 = and i64 %8, 4294967295
  %12 = getelementptr inbounds nuw %class.svector.15, ptr %10, i64 %11
  %13 = load ptr, ptr %12, align 8, !tbaa !82
  ret ptr %13
}